target datalayout = "e-m:e-p270:32:32-p271:32:32-p272:64:64-i64:64-i128:128-f80:128-n8:16:32:64-S128"
target triple = "x86_64-pc-linux-gnu"

%struct.conf_method_st = type { ptr, ptr, ptr, ptr, ptr, ptr, ptr, ptr, ptr, ptr }
%struct.conf_st = type { ptr, ptr, ptr, i32, i32, ptr, ptr }

@default_method = internal global %struct.conf_method_st { ptr @.str, ptr @def_create, ptr @def_init_default, ptr @def_destroy, ptr @def_destroy_data, ptr @def_load_bio, ptr @def_dump, ptr @def_is_number, ptr @def_to_int, ptr @def_load }, align 8

; Function Attrs: nounwind uwtable
define internal i32 @def_init_default(ptr noundef %0) #0 {
  %2 = alloca i32, align 4
  %3 = alloca ptr, align 8
  store ptr %0, ptr %3, align 8, !tbaa !8
  %4 = load ptr, ptr %3, align 8, !tbaa !8
  %5 = icmp eq ptr %4, null
  br i1 %5, label %6, label %7

6:                                                ; preds = %1
  store i32 0, ptr %2, align 4
  br label %13

7:                                                ; preds = %1
  %8 = load ptr, ptr %3, align 8, !tbaa !8
  call void @llvm.memset.p0.i64(ptr align 8 %8, i8 0, i64 48, i1 false)
  %9 = load ptr, ptr %3, align 8, !tbaa !8
  %10 = getelementptr inbounds nuw %struct.conf_st, ptr %9, i32 0, i32 0
  store ptr @default_method, ptr %10, align 8, !tbaa !13
  %11 = load ptr, ptr %3, align 8, !tbaa !8
  %12 = getelementptr inbounds nuw %struct.conf_st, ptr %11, i32 0, i32 1
  store ptr @CONF_type_default, ptr %12, align 8, !tbaa !18
  store i32 1, ptr %2, align 4
  br label %13

13:                                               ; preds = %7, %6
  %14 = load i32, ptr %2, align 4
  ret i32 %14
}